target datalayout = "e-m:e-p270:32:32-p271:32:32-p272:64:64-i64:64-i128:128-f80:128-n8:16:32:64-S128"
target triple = "x86_64-pc-linux-gnu"

%struct.message = type { ptr, i32, i32, ptr, ptr, ptr, ptr, ptr, ptr, i64, i32, ptr, ptr, ptr, ptr, ptr, i8, i8, i8, i8, ptr }

@.str.13 = private unnamed_addr constant [1 x i8] zeroinitializer, align 1
@.str.33 = private unnamed_addr constant [79 x i8] c"Internal email parser error: invalid arguments when finding message arguments\0A\00", align 1
@.str.34 = private unnamed_addr constant [65 x i8] c"messageFindArgument: no '=' sign found in MIME header '%s' (%s)\0A\00", align 1
@.str.80 = private unnamed_addr constant [91 x i8] c"Internal email parse error: message pointer is NULL when trying to get a message argument\0A\00", align 1

; Function Attrs: nounwind uwtable
define internal ptr @messageGetArgument(ptr noundef %0, i64 noundef %1) #0 {
  %3 = alloca ptr, align 8
  %4 = alloca ptr, align 8
  %5 = alloca i64, align 8
  store ptr %0, ptr %4, align 8
  store i64 %1, ptr %5, align 8
  %6 = load ptr, ptr %4, align 8
  %7 = icmp eq ptr %6, null
  br i1 %7, label %8, label %9

8:                                                ; preds = %2
  call void (ptr, ...) @cli_errmsg(ptr noundef @.str.80)
  store ptr @.str.13, ptr %3, align 8
  br label %34

9:                                                ; preds = %2
  %10 = load i64, ptr %5, align 8
  %11 = load ptr, ptr %4, align 8
  %12 = getelementptr inbounds %struct.message, ptr %11, i32 0, i32 9
  %13 = load i64, ptr %12, align 8
  %14 = icmp uge i64 %10, %13
  br i1 %14, label %15, label %16

15:                                               ; preds = %9
  store ptr @.str.13, ptr %3, align 8
  br label %34

16:                                               ; preds = %9
  %17 = load ptr, ptr %4, align 8
  %18 = getelementptr inbounds %struct.message, ptr %17, i32 0, i32 4
  %19 = load ptr, ptr %18, align 8
  %20 = load i64, ptr %5, align 8
  %21 = getelementptr inbounds ptr, ptr %19, i64 %20
  %22 = load ptr, ptr %21, align 8
  %23 = icmp ne ptr %22, null
  br i1 %23, label %24, label %31

24:                                               ; preds = %16
  %25 = load ptr, ptr %4, align 8
  %26 = getelementptr inbounds %struct.message, ptr %25, i32 0, i32 4
  %27 = load ptr, ptr %26, align 8
  %28 = load i64, ptr %5, align 8
  %29 = getelementptr inbounds ptr, ptr %27, i64 %28
  %30 = load ptr, ptr %29, align 8
  br label %32

31:                                               ; preds = %16
  br label %32

32:                                               ; preds = %31, %24
  %33 = phi ptr [ %30, %24 ], [ @.str.13, %31 ]
  store ptr %33, ptr %3, align 8
  br label %34

34:                                               ; preds = %32, %15, %8
  %35 = load ptr, ptr %3, align 8
  ret ptr %35
}

; Function Attrs: nounwind uwtable
define ptr @messageFindArgument(ptr noundef %0, ptr noundef %1) #0 {
  %3 = alloca ptr, align 8
  %4 = alloca ptr, align 8
  %5 = alloca ptr, align 8
  %6 = alloca i64, align 8
  %7 = alloca i64, align 8
  %8 = alloca ptr, align 8
  %9 = alloca ptr, align 8
  %10 = alloca ptr, align 8
  store ptr %0, ptr %4, align 8
  store ptr %1, ptr %5, align 8
  %11 = load ptr, ptr %4, align 8
  %12 = icmp eq ptr %11, null
  br i1 %12, label %16, label %13

13:                                               ; preds = %2
  %14 = load ptr, ptr %5, align 8
  %15 = icmp eq ptr %14, null
  br i1 %15, label %16, label %17

16:                                               ; preds = %13, %2
  call void (ptr, ...) @cli_errmsg(ptr noundef @.str.33)
  store ptr null, ptr %3, align 8
  br label %117

17:                                               ; preds = %13
  %18 = load ptr, ptr %5, align 8
  %19 = call i64 @strlen(ptr noundef %18) #13
  store i64 %19, ptr %7, align 8
  store i64 0, ptr %6, align 8
  br label %20

20:                                               ; preds = %113, %17
  %21 = load i64, ptr %6, align 8
  %22 = load ptr, ptr %4, align 8
  %23 = getelementptr inbounds %struct.message, ptr %22, i32 0, i32 9
  %24 = load i64, ptr %23, align 8
  %25 = icmp ult i64 %21, %24
  br i1 %25, label %26, label %116

26:                                               ; preds = %20
  %27 = load ptr, ptr %4, align 8
  %28 = load i64, ptr %6, align 8
  %29 = call ptr @messageGetArgument(ptr noundef %27, i64 noundef %28)
  store ptr %29, ptr %8, align 8
  %30 = load ptr, ptr %8, align 8
  %31 = icmp eq ptr %30, null
  br i1 %31, label %37, label %32

32:                                               ; preds = %26
  %33 = load ptr, ptr %8, align 8
  %34 = load i8, ptr %33, align 1
  %35 = sext i8 %34 to i32
  %36 = icmp eq i32 %35, 0
  br i1 %36, label %37, label %38

37:                                               ; preds = %32, %26
  br label %113

38:                                               ; preds = %32
  %39 = load ptr, ptr %8, align 8
  %40 = load ptr, ptr %5, align 8
  %41 = load i64, ptr %7, align 8
  %42 = call i32 @strncasecmp(ptr noundef %39, ptr noundef %40, i64 noundef %41) #13
  %43 = icmp eq i32 %42, 0
  br i1 %43, label %44, label %112

44:                                               ; preds = %38
  %45 = load ptr, ptr %8, align 8
  %46 = load i64, ptr %7, align 8
  %47 = getelementptr inbounds i8, ptr %45, i64 %46
  store ptr %47, ptr %8, align 8
  br label %48

48:                                               ; preds = %60, %44
  %49 = call ptr @__ctype_b_loc() #12
  %50 = load ptr, ptr %49, align 8
  %51 = load ptr, ptr %8, align 8
  %52 = load i8, ptr %51, align 1
  %53 = sext i8 %52 to i32
  %54 = sext i32 %53 to i64
  %55 = getelementptr inbounds i16, ptr %50, i64 %54
  %56 = load i16, ptr %55, align 2
  %57 = zext i16 %56 to i32
  %58 = and i32 %57, 8192
  %59 = icmp ne i32 %58, 0
  br i1 %59, label %60, label %63

60:                                               ; preds = %48
  %61 = load ptr, ptr %8, align 8
  %62 = getelementptr inbounds i8, ptr %61, i32 1
  store ptr %62, ptr %8, align 8
  br label %48

63:                                               ; preds = %48
  %64 = load ptr, ptr %8, align 8
  %65 = load i8, ptr %64, align 1
  %66 = sext i8 %65 to i32
  %67 = icmp ne i32 %66, 61
  br i1 %67, label %68, label %73

68:                                               ; preds = %63
  %69 = load ptr, ptr %5, align 8
  %70 = load ptr, ptr %4, align 8
  %71 = load i64, ptr %6, align 8
  %72 = call ptr @messageGetArgument(ptr noundef %70, i64 noundef %71)
  call void (ptr, ...) @cli_dbgmsg(ptr noundef @.str.34, ptr noundef %69, ptr noundef %72)
  store ptr null, ptr %3, align 8
  br label %117

73:                                               ; preds = %63
  %74 = load ptr, ptr %8, align 8
  %75 = getelementptr inbounds i8, ptr %74, i32 1
  store ptr %75, ptr %8, align 8
  %76 = load ptr, ptr %8, align 8
  %77 = call i64 @strlen(ptr noundef %76) #13
  %78 = icmp ugt i64 %77, 1
  br i1 %78, label %79, label %109

79:                                               ; preds = %73
  %80 = load ptr, ptr %8, align 8
  %81 = load i8, ptr %80, align 1
  %82 = sext i8 %81 to i32
  %83 = icmp eq i32 %82, 34
  br i1 %83, label %84, label %109

84:                                               ; preds = %79
  %85 = load ptr, ptr %8, align 8
  %86 = getelementptr inbounds i8, ptr %85, i64 1
  %87 = call ptr @strchr(ptr noundef %86, i32 noundef 34) #13
  %88 = icmp ne ptr %87, null
  br i1 %88, label %89, label %109

89:                                               ; preds = %84
  %90 = load ptr, ptr %8, align 8
  %91 = getelementptr inbounds i8, ptr %90, i32 1
  store ptr %91, ptr %8, align 8
  %92 = call ptr @cli_safer_strdup(ptr noundef %91)
  store ptr %92, ptr %9, align 8
  %93 = load ptr, ptr %9, align 8
  %94 = icmp eq ptr %93, null
  br i1 %94, label %95, label %96

95:                                               ; preds = %89
  store ptr null, ptr %3, align 8
  br label %117

96:                                               ; preds = %89
  %97 = load ptr, ptr %9, align 8
  %98 = call ptr @strchr(ptr noundef %97, i32 noundef 34) #13
  store ptr %98, ptr %10, align 8
  %99 = icmp ne ptr %98, null
  br i1 %99, label %100, label %107

100:                                              ; preds = %96
  %101 = load ptr, ptr %9, align 8
  %102 = load ptr, ptr %9, align 8
  %103 = call i64 @strlen(ptr noundef %102) #13
  %104 = sub i64 %103, 1
  %105 = getelementptr inbounds i8, ptr %101, i64 %104
  store i8 0, ptr %105, align 1
  %106 = load ptr, ptr %10, align 8
  store i8 0, ptr %106, align 1
  br label %107

107:                                              ; preds = %100, %96
  %108 = load ptr, ptr %9, align 8
  store ptr %108, ptr %3, align 8
  br label %117

109:                                              ; preds = %84, %79, %73
  %110 = load ptr, ptr %8, align 8
  %111 = call ptr @cli_safer_strdup(ptr noundef %110)
  store ptr %111, ptr %3, align 8
  br label %117

112:                                              ; preds = %38
  br label %113

113:                                              ; preds = %112, %37
  %114 = load i64, ptr %6, align 8
  %115 = add i64 %114, 1
  store i64 %115, ptr %6, align 8
  br label %20

116:                                              ; preds = %20
  store ptr null, ptr %3, align 8
  br label %117

117:                                              ; preds = %116, %109, %107, %95, %68, %16
  %118 = load ptr, ptr %3, align 8
  ret ptr %118
}