; Function Attrs: nounwind uwtable
define ptr @messageFindArgument(ptr noundef readonly %0, ptr noundef %1) local_unnamed_addr #2 {
  %3 = icmp eq ptr %0, null
  %4 = icmp eq ptr %1, null
  %or.cond = or i1 %3, %4
  br i1 %or.cond, label %5, label %6

5:                                                ; preds = %2
  tail call void (ptr, ...) @cli_errmsg(ptr noundef nonnull @.str.33) #21
  br label %.loopexit

6:                                                ; preds = %2
  %7 = tail call i64 @strlen(ptr noundef nonnull dereferenceable(1) %1) #23
  %8 = getelementptr inbounds i8, ptr %0, i64 64
  %9 = load i64, ptr %8, align 8
  %.not51 = icmp eq i64 %9, 0
  br i1 %.not51, label %.loopexit, label %.lr.ph

.lr.ph:                                           ; preds = %6
  %10 = getelementptr inbounds i8, ptr %0, i64 24
  %11 = load ptr, ptr %10, align 8
  br label %12

12:                                               ; preds = %.lr.ph, %52
  %.03450 = phi i64 [ 0, %.lr.ph ], [ %53, %52 ]
  %13 = getelementptr inbounds ptr, ptr %11, i64 %.03450
  %14 = load ptr, ptr %13, align 8
  %.not10.i = icmp eq ptr %14, null
  %spec.select.i = select i1 %.not10.i, ptr @.str.13, ptr %14
  %15 = load i8, ptr %spec.select.i, align 1
  %16 = icmp eq i8 %15, 0
  br i1 %16, label %52, label %17

17:                                               ; preds = %12
  %18 = tail call i32 @strncasecmp(ptr noundef nonnull %spec.select.i, ptr noundef %1, i64 noundef %7) #23
  %19 = icmp eq i32 %18, 0
  br i1 %19, label %20, label %52

20:                                               ; preds = %17
  %21 = getelementptr inbounds i8, ptr %spec.select.i, i64 %7
  %22 = tail call ptr @__ctype_b_loc() #22
  %23 = load ptr, ptr %22, align 8
  br label %24

24:                                               ; preds = %24, %20
  %.035 = phi ptr [ %21, %20 ], [ %30, %24 ]
  %25 = load i8, ptr %.035, align 1
  %26 = sext i8 %25 to i64
  %27 = getelementptr inbounds i16, ptr %23, i64 %26
  %28 = load i16, ptr %27, align 2
  %29 = and i16 %28, 8192
  %.not = icmp eq i16 %29, 0
  %30 = getelementptr inbounds i8, ptr %.035, i64 1
  br i1 %.not, label %31, label %24

31:                                               ; preds = %24
  %.not41 = icmp eq i8 %25, 61
  br i1 %.not41, label %32, label %messageGetArgument.exit48

messageGetArgument.exit48:                        ; preds = %31
  tail call void (ptr, ...) @cli_dbgmsg(ptr noundef nonnull @.str.34, ptr noundef %1, ptr noundef nonnull %spec.select.i) #21
  br label %.loopexit

32:                                               ; preds = %31
  %33 = tail call i64 @strlen(ptr noundef nonnull dereferenceable(1) %30) #23
  %34 = icmp ugt i64 %33, 1
  br i1 %34, label %35, label %50

35:                                               ; preds = %32
  %36 = load i8, ptr %30, align 1
  %37 = icmp eq i8 %36, 34
  br i1 %37, label %38, label %50

38:                                               ; preds = %35
  %39 = getelementptr inbounds i8, ptr %.035, i64 2
  %40 = tail call ptr @strchr(ptr noundef nonnull dereferenceable(1) %39, i32 noundef 34) #23
  %.not42 = icmp eq ptr %40, null
  br i1 %.not42, label %50, label %41

41:                                               ; preds = %38
  %42 = tail call ptr @cli_safer_strdup(ptr noundef nonnull %39) #21
  %43 = icmp eq ptr %42, null
  br i1 %43, label %.loopexit, label %44

44:                                               ; preds = %41
  %45 = tail call ptr @strchr(ptr noundef nonnull dereferenceable(1) %42, i32 noundef 34) #23
  %.not43 = icmp eq ptr %45, null
  br i1 %.not43, label %.loopexit, label %46

46:                                               ; preds = %44
  %47 = tail call i64 @strlen(ptr noundef nonnull dereferenceable(1) %42) #23
  %48 = getelementptr i8, ptr %42, i64 %47
  %49 = getelementptr i8, ptr %48, i64 -1
  store i8 0, ptr %49, align 1
  store i8 0, ptr %45, align 1
  br label %.loopexit

50:                                               ; preds = %38, %35, %32
  %51 = tail call ptr @cli_safer_strdup(ptr noundef nonnull %30) #21
  br label %.loopexit

52:                                               ; preds = %17, %12
  %53 = add nuw i64 %.03450, 1
  %exitcond.not = icmp eq i64 %53, %9
  br i1 %exitcond.not, label %.loopexit, label %12

.loopexit:                                        ; preds = %52, %6, %44, %46, %41, %50, %messageGetArgument.exit48, %5
  %.0 = phi ptr [ null, %5 ], [ null, %messageGetArgument.exit48 ], [ %51, %50 ], [ null, %41 ], [ %42, %46 ], [ %42, %44 ], [ null, %6 ], [ null, %52 ]
  ret ptr %.0
}